; ModuleID = '27/2284.c'
source_filename = "27/2284.c"
target datalayout = "e-m:e-p270:32:32-p271:32:32-p272:64:64-i64:64-f80:128-n8:16:32:64-S128"
target triple = "x86_64-pc-linux-gnu"

@.str = private unnamed_addr constant [3 x i8] c"%d\00", align 1
@.str.1 = private unnamed_addr constant [9 x i8] c"%f %f %f\00", align 1
@.str.2 = private unnamed_addr constant [12 x i8] c"x1=x2=%.5f\0A\00", align 1
@.str.3 = private unnamed_addr constant [17 x i8] c"x1=%.5f;x2=%.5f\0A\00", align 1
@.str.4 = private unnamed_addr constant [29 x i8] c"x1=%.5f+%.5fi;x2=%.5f-%.5fi\0A\00", align 1

; Function Attrs: noinline nounwind uwtable
define dso_local i32 @main() #0 {
  %1 = alloca i32, align 4
  %2 = alloca double, align 8
  %3 = alloca i32, align 4
  %4 = alloca i32, align 4
  %5 = alloca [20 x float], align 16
  %6 = alloca [20 x float], align 16
  %7 = alloca [20 x float], align 16
  %8 = alloca i32, align 4
  %9 = alloca double, align 8
  %10 = alloca double, align 8
  %11 = alloca double, align 8
  %12 = alloca double, align 8
  store i32 0, i32* %1, align 4
  %13 = call i32 (i8*, ...) @__isoc99_scanf(i8* getelementptr inbounds ([3 x i8], [3 x i8]* @.str, i64 0, i64 0), i32* %3)
  store i32 0, i32* %4, align 4
  br label %14

14:                                               ; preds = %29, %0
  %15 = load i32, i32* %4, align 4
  %16 = load i32, i32* %3, align 4
  %17 = icmp slt i32 %15, %16
  br i1 %17, label %18, label %32

18:                                               ; preds = %14
  %19 = load i32, i32* %4, align 4
  %20 = sext i32 %19 to i64
  %21 = getelementptr inbounds [20 x float], [20 x float]* %5, i64 0, i64 %20
  %22 = load i32, i32* %4, align 4
  %23 = sext i32 %22 to i64
  %24 = getelementptr inbounds [20 x float], [20 x float]* %6, i64 0, i64 %23
  %25 = load i32, i32* %4, align 4
  %26 = sext i32 %25 to i64
  %27 = getelementptr inbounds [20 x float], [20 x float]* %7, i64 0, i64 %26
  %28 = call i32 (i8*, ...) @__isoc99_scanf(i8* getelementptr inbounds ([9 x i8], [9 x i8]* @.str.1, i64 0, i64 0), float* %21, float* %24, float* %27)
  br label %29

29:                                               ; preds = %18
  %30 = load i32, i32* %4, align 4
  %31 = add nsw i32 %30, 1
  store i32 %31, i32* %4, align 4
  br label %14

32:                                               ; preds = %14
  store i32 0, i32* %8, align 4
  br label %33

33:                                               ; preds = %134, %32
  %34 = load i32, i32* %8, align 4
  %35 = load i32, i32* %3, align 4
  %36 = icmp slt i32 %34, %35
  br i1 %36, label %37, label %137

37:                                               ; preds = %33
  %38 = load i32, i32* %8, align 4
  %39 = sext i32 %38 to i64
  %40 = getelementptr inbounds [20 x float], [20 x float]* %6, i64 0, i64 %39
  %41 = load float, float* %40, align 4
  %42 = load i32, i32* %8, align 4
  %43 = sext i32 %42 to i64
  %44 = getelementptr inbounds [20 x float], [20 x float]* %6, i64 0, i64 %43
  %45 = load float, float* %44, align 4
  %46 = fmul float %41, %45
  %47 = load i32, i32* %8, align 4
  %48 = sext i32 %47 to i64
  %49 = getelementptr inbounds [20 x float], [20 x float]* %5, i64 0, i64 %48
  %50 = load float, float* %49, align 4
  %51 = fmul float 4.000000e+00, %50
  %52 = load i32, i32* %8, align 4
  %53 = sext i32 %52 to i64
  %54 = getelementptr inbounds [20 x float], [20 x float]* %7, i64 0, i64 %53
  %55 = load float, float* %54, align 4
  %56 = fmul float %51, %55
  %57 = fsub float %46, %56
  %58 = fpext float %57 to double
  store double %58, double* %2, align 8
  %59 = load double, double* %2, align 8
  %60 = fcmp oge double %59, 0.000000e+00
  br i1 %60, label %61, label %105

61:                                               ; preds = %37
  %62 = load i32, i32* %8, align 4
  %63 = sext i32 %62 to i64
  %64 = getelementptr inbounds [20 x float], [20 x float]* %6, i64 0, i64 %63
  %65 = load float, float* %64, align 4
  %66 = fneg float %65
  %67 = fpext float %66 to double
  %68 = load double, double* %2, align 8
  %69 = call double @sqrt(double %68) #3
  %70 = fadd double %67, %69
  %71 = load i32, i32* %8, align 4
  %72 = sext i32 %71 to i64
  %73 = getelementptr inbounds [20 x float], [20 x float]* %5, i64 0, i64 %72
  %74 = load float, float* %73, align 4
  %75 = fmul float 2.000000e+00, %74
  %76 = fpext float %75 to double
  %77 = fdiv double %70, %76
  store double %77, double* %9, align 8
  %78 = load i32, i32* %8, align 4
  %79 = sext i32 %78 to i64
  %80 = getelementptr inbounds [20 x float], [20 x float]* %6, i64 0, i64 %79
  %81 = load float, float* %80, align 4
  %82 = fneg float %81
  %83 = fpext float %82 to double
  %84 = load double, double* %2, align 8
  %85 = call double @sqrt(double %84) #3
  %86 = fsub double %83, %85
  %87 = load i32, i32* %8, align 4
  %88 = sext i32 %87 to i64
  %89 = getelementptr inbounds [20 x float], [20 x float]* %5, i64 0, i64 %88
  %90 = load float, float* %89, align 4
  %91 = fmul float 2.000000e+00, %90
  %92 = fpext float %91 to double
  %93 = fdiv double %86, %92
  store double %93, double* %10, align 8
  %94 = load double, double* %9, align 8
  %95 = load double, double* %10, align 8
  %96 = fcmp oeq double %94, %95
  br i1 %96, label %97, label %100

97:                                               ; preds = %61
  %98 = load double, double* %9, align 8
  %99 = call i32 (i8*, ...) @printf(i8* getelementptr inbounds ([12 x i8], [12 x i8]* @.str.2, i64 0, i64 0), double %98)
  br label %104

100:                                              ; preds = %61
  %101 = load double, double* %9, align 8
  %102 = load double, double* %10, align 8
  %103 = call i32 (i8*, ...) @printf(i8* getelementptr inbounds ([17 x i8], [17 x i8]* @.str.3, i64 0, i64 0), double %101, double %102)
  br label %104

104:                                              ; preds = %100, %97
  br label %133

105:                                              ; preds = %37
  %106 = load double, double* %2, align 8
  %107 = fneg double %106
  %108 = call double @sqrt(double %107) #3
  %109 = load i32, i32* %8, align 4
  %110 = sext i32 %109 to i64
  %111 = getelementptr inbounds [20 x float], [20 x float]* %5, i64 0, i64 %110
  %112 = load float, float* %111, align 4
  %113 = fmul float 2.000000e+00, %112
  %114 = fpext float %113 to double
  %115 = fdiv double %108, %114
  store double %115, double* %11, align 8
  %116 = load i32, i32* %8, align 4
  %117 = sext i32 %116 to i64
  %118 = getelementptr inbounds [20 x float], [20 x float]* %6, i64 0, i64 %117
  %119 = load float, float* %118, align 4
  %120 = load i32, i32* %8, align 4
  %121 = sext i32 %120 to i64
  %122 = getelementptr inbounds [20 x float], [20 x float]* %5, i64 0, i64 %121
  %123 = load float, float* %122, align 4
  %124 = fmul float 2.000000e+00, %123
  %125 = fdiv float %119, %124
  %126 = fsub float 0.000000e+00, %125
  %127 = fpext float %126 to double
  store double %127, double* %12, align 8
  %128 = load double, double* %12, align 8
  %129 = load double, double* %11, align 8
  %130 = load double, double* %12, align 8
  %131 = load double, double* %11, align 8
  %132 = call i32 (i8*, ...) @printf(i8* getelementptr inbounds ([29 x i8], [29 x i8]* @.str.4, i64 0, i64 0), double %128, double %129, double %130, double %131)
  br label %133

133:                                              ; preds = %105, %104
  br label %134

134:                                              ; preds = %133
  %135 = load i32, i32* %8, align 4
  %136 = add nsw i32 %135, 1
  store i32 %136, i32* %8, align 4
  br label %33

137:                                              ; preds = %33
  %138 = load i32, i32* %1, align 4
  ret i32 %138
}

declare dso_local i32 @__isoc99_scanf(i8*, ...) #1

; Function Attrs: nounwind
declare dso_local double @sqrt(double) #2

declare dso_local i32 @printf(i8*, ...) #1


!llvm.module.flags = !{!0}
!llvm.ident = !{!1}

!0 = !{i32 1, !"wchar_size", i32 4}
!1 = !{!"clang version 10.0.0-4ubuntu1 "}
